target datalayout = "e-m:e-p270:32:32-p271:32:32-p272:64:64-i64:64-i128:128-f80:128-n8:16:32:64-S128"
target triple = "x86_64-pc-linux-gnu"

%"class.rocksdb::Slice" = type { ptr, i64 }
%"class.rocksdb::Comparator" = type { %"class.rocksdb::Customizable", %"class.rocksdb::CompareInterface", i64 }
%"class.rocksdb::Customizable" = type { %"class.rocksdb::Configurable" }
%"class.rocksdb::Configurable" = type { ptr, %"class.std::vector" }
%"class.std::vector" = type { %"struct.std::_Vector_base" }
%"struct.std::_Vector_base" = type { %"struct.std::_Vector_base<rocksdb::Configurable::RegisteredOptions, std::allocator<rocksdb::Configurable::RegisteredOptions>>::_Vector_impl" }
%"struct.std::_Vector_base<rocksdb::Configurable::RegisteredOptions, std::allocator<rocksdb::Configurable::RegisteredOptions>>::_Vector_impl" = type { %"struct.std::_Vector_base<rocksdb::Configurable::RegisteredOptions, std::allocator<rocksdb::Configurable::RegisteredOptions>>::_Vector_impl_data" }
%"struct.std::_Vector_base<rocksdb::Configurable::RegisteredOptions, std::allocator<rocksdb::Configurable::RegisteredOptions>>::_Vector_impl_data" = type { ptr, ptr, ptr }
%"class.rocksdb::CompareInterface" = type { ptr }

; Function Attrs: mustprogress nounwind uwtable
define linkonce_odr void @_ZN7rocksdb5SliceC2EPKcm(ptr noundef nonnull align 8 dereferenceable(16) %0, ptr noundef %1, i64 noundef %2) unnamed_addr #3 comdat align 2 {
  %4 = alloca ptr, align 8
  %5 = alloca ptr, align 8
  %6 = alloca i64, align 8
  store ptr %0, ptr %4, align 8, !tbaa !13
  store ptr %1, ptr %5, align 8, !tbaa !10
  store i64 %2, ptr %6, align 8, !tbaa !4
  %7 = load ptr, ptr %4, align 8
  %8 = getelementptr inbounds nuw %"class.rocksdb::Slice", ptr %7, i32 0, i32 0
  %9 = load ptr, ptr %5, align 8, !tbaa !10
  store ptr %9, ptr %8, align 8, !tbaa !15
  %10 = getelementptr inbounds nuw %"class.rocksdb::Slice", ptr %7, i32 0, i32 1
  %11 = load i64, ptr %6, align 8, !tbaa !4
  store i64 %11, ptr %10, align 8, !tbaa !17
  ret void
}

; Function Attrs: mustprogress nounwind uwtable
define linkonce_odr noundef i64 @_ZNK7rocksdb5Slice4sizeEv(ptr noundef nonnull align 8 dereferenceable(16) %0) #3 comdat align 2 {
  %2 = alloca ptr, align 8
  store ptr %0, ptr %2, align 8, !tbaa !13
  %3 = load ptr, ptr %2, align 8
  %4 = getelementptr inbounds nuw %"class.rocksdb::Slice", ptr %3, i32 0, i32 1
  %5 = load i64, ptr %4, align 8, !tbaa !17
  ret i64 %5
}

; Function Attrs: mustprogress nounwind uwtable
define linkonce_odr noundef ptr @_ZNK7rocksdb5Slice4dataEv(ptr noundef nonnull align 8 dereferenceable(16) %0) #3 comdat align 2 {
  %2 = alloca ptr, align 8
  store ptr %0, ptr %2, align 8, !tbaa !13
  %3 = load ptr, ptr %2, align 8
  %4 = getelementptr inbounds nuw %"class.rocksdb::Slice", ptr %3, i32 0, i32 0
  %5 = load ptr, ptr %4, align 8, !tbaa !15
  ret ptr %5
}

; Function Attrs: inlinehint mustprogress uwtable
define linkonce_odr { ptr, i64 } @_ZN7rocksdb27ExtractTimestampFromUserKeyERKNS_5SliceEm(ptr noundef nonnull align 8 dereferenceable(16) %0, i64 noundef %1) #13 comdat {
  %3 = alloca %"class.rocksdb::Slice", align 8
  %4 = alloca ptr, align 8
  %5 = alloca i64, align 8
  store ptr %0, ptr %4, align 8, !tbaa !13
  store i64 %1, ptr %5, align 8, !tbaa !4
  %6 = load ptr, ptr %4, align 8, !tbaa !13
  %7 = call noundef ptr @_ZNK7rocksdb5Slice4dataEv(ptr noundef nonnull align 8 dereferenceable(16) %6)
  %8 = load ptr, ptr %4, align 8, !tbaa !13
  %9 = call noundef i64 @_ZNK7rocksdb5Slice4sizeEv(ptr noundef nonnull align 8 dereferenceable(16) %8)
  %10 = getelementptr inbounds nuw i8, ptr %7, i64 %9
  %11 = load i64, ptr %5, align 8, !tbaa !4
  %12 = sub i64 0, %11
  %13 = getelementptr inbounds i8, ptr %10, i64 %12
  %14 = load i64, ptr %5, align 8, !tbaa !4
  call void @_ZN7rocksdb5SliceC2EPKcm(ptr noundef nonnull align 8 dereferenceable(16) %3, ptr noundef %13, i64 noundef %14)
  %15 = load { ptr, i64 }, ptr %3, align 8
  ret { ptr, i64 } %15
}

; Function Attrs: inlinehint mustprogress nounwind uwtable
define linkonce_odr noundef i64 @_ZNK7rocksdb10Comparator14timestamp_sizeEv(ptr noundef nonnull align 8 dereferenceable(48) %0) #1 comdat align 2 {
  %2 = alloca ptr, align 8
  store ptr %0, ptr %2, align 8, !tbaa !38
  %3 = load ptr, ptr %2, align 8
  %4 = getelementptr inbounds nuw %"class.rocksdb::Comparator", ptr %3, i32 0, i32 2
  %5 = load i64, ptr %4, align 8, !tbaa !90
  ret i64 %5
}

; Function Attrs: mustprogress uwtable
define linkonce_odr noundef i32 @_ZNK7rocksdb10Comparator23CompareWithoutTimestampERKNS_5SliceES3_(ptr noundef nonnull align 8 dereferenceable(48) %0, ptr noundef nonnull align 8 dereferenceable(16) %1, ptr noundef nonnull align 8 dereferenceable(16) %2) #4 comdat align 2 {
  %4 = alloca ptr, align 8
  %5 = alloca ptr, align 8
  %6 = alloca ptr, align 8
  store ptr %0, ptr %4, align 8, !tbaa !38
  store ptr %1, ptr %5, align 8, !tbaa !13
  store ptr %2, ptr %6, align 8, !tbaa !13
  %7 = load ptr, ptr %4, align 8
  %8 = load ptr, ptr %5, align 8, !tbaa !13
  %9 = load ptr, ptr %6, align 8, !tbaa !13
  %10 = load ptr, ptr %7, align 8, !tbaa !21
  %11 = getelementptr inbounds ptr, ptr %10, i64 29
  %12 = load ptr, ptr %11, align 8
  %13 = call noundef i32 %12(ptr noundef nonnull align 8 dereferenceable(48) %7, ptr noundef nonnull align 8 dereferenceable(16) %8, i1 noundef zeroext true, ptr noundef nonnull align 8 dereferenceable(16) %9, i1 noundef zeroext true)
  ret i32 %13
}

; Function Attrs: mustprogress uwtable
define internal noundef i32 @_ZNK7rocksdb12_GLOBAL__N_123ComparatorWithU64TsImplINS0_29ReverseBytewiseComparatorImplEE7CompareERKNS_5SliceES6_(ptr noundef nonnull align 8 dereferenceable(96) %0, ptr noundef nonnull align 8 dereferenceable(16) %1, ptr noundef nonnull align 8 dereferenceable(16) %2) unnamed_addr #4 align 2 {
  %4 = alloca i32, align 4
  %5 = alloca ptr, align 8
  %6 = alloca ptr, align 8
  %7 = alloca ptr, align 8
  %8 = alloca i32, align 4
  %9 = alloca i64, align 8
  %10 = alloca i32, align 4
  %11 = alloca %"class.rocksdb::Slice", align 8
  %12 = alloca %"class.rocksdb::Slice", align 8
  store ptr %0, ptr %5, align 8, !tbaa !27
  store ptr %1, ptr %6, align 8, !tbaa !13
  store ptr %2, ptr %7, align 8, !tbaa !13
  %13 = load ptr, ptr %5, align 8
  call void @llvm.lifetime.start.p0(i64 4, ptr %8) #5
  %14 = load ptr, ptr %6, align 8, !tbaa !13
  %15 = load ptr, ptr %7, align 8, !tbaa !13
  %16 = call noundef i32 @_ZNK7rocksdb10Comparator23CompareWithoutTimestampERKNS_5SliceES3_(ptr noundef nonnull align 8 dereferenceable(48) %13, ptr noundef nonnull align 8 dereferenceable(16) %14, ptr noundef nonnull align 8 dereferenceable(16) %15)
  store i32 %16, ptr %8, align 4, !tbaa !58
  call void @llvm.lifetime.start.p0(i64 8, ptr %9) #5
  %17 = call noundef i64 @_ZNK7rocksdb10Comparator14timestamp_sizeEv(ptr noundef nonnull align 8 dereferenceable(48) %13)
  store i64 %17, ptr %9, align 8, !tbaa !4
  %18 = load i32, ptr %8, align 4, !tbaa !58
  %19 = icmp ne i32 %18, 0
  br i1 %19, label %20, label %22

20:                                               ; preds = %3
  %21 = load i32, ptr %8, align 4, !tbaa !58
  store i32 %21, ptr %4, align 4
  store i32 1, ptr %10, align 4
  br label %42

22:                                               ; preds = %3
  call void @llvm.lifetime.start.p0(i64 16, ptr %11) #5
  %23 = load ptr, ptr %6, align 8, !tbaa !13
  %24 = load i64, ptr %9, align 8, !tbaa !4
  %25 = call { ptr, i64 } @_ZN7rocksdb27ExtractTimestampFromUserKeyERKNS_5SliceEm(ptr noundef nonnull align 8 dereferenceable(16) %23, i64 noundef %24)
  %26 = getelementptr inbounds nuw { ptr, i64 }, ptr %11, i32 0, i32 0
  %27 = extractvalue { ptr, i64 } %25, 0
  store ptr %27, ptr %26, align 8
  %28 = getelementptr inbounds nuw { ptr, i64 }, ptr %11, i32 0, i32 1
  %29 = extractvalue { ptr, i64 } %25, 1
  store i64 %29, ptr %28, align 8
  call void @llvm.lifetime.start.p0(i64 16, ptr %12) #5
  %30 = load ptr, ptr %7, align 8, !tbaa !13
  %31 = load i64, ptr %9, align 8, !tbaa !4
  %32 = call { ptr, i64 } @_ZN7rocksdb27ExtractTimestampFromUserKeyERKNS_5SliceEm(ptr noundef nonnull align 8 dereferenceable(16) %30, i64 noundef %31)
  %33 = getelementptr inbounds nuw { ptr, i64 }, ptr %12, i32 0, i32 0
  %34 = extractvalue { ptr, i64 } %32, 0
  store ptr %34, ptr %33, align 8
  %35 = getelementptr inbounds nuw { ptr, i64 }, ptr %12, i32 0, i32 1
  %36 = extractvalue { ptr, i64 } %32, 1
  store i64 %36, ptr %35, align 8
  %37 = load ptr, ptr %13, align 8, !tbaa !21
  %38 = getelementptr inbounds ptr, ptr %37, i64 28
  %39 = load ptr, ptr %38, align 8
  %40 = call noundef i32 %39(ptr noundef nonnull align 8 dereferenceable(96) %13, ptr noundef nonnull align 8 dereferenceable(16) %11, ptr noundef nonnull align 8 dereferenceable(16) %12)
  %41 = sub nsw i32 0, %40
  store i32 %41, ptr %4, align 4
  call void @llvm.lifetime.end.p0(i64 16, ptr %12) #5
  call void @llvm.lifetime.end.p0(i64 16, ptr %11) #5
  store i32 1, ptr %10, align 4
  br label %42

42:                                               ; preds = %22, %20
  call void @llvm.lifetime.end.p0(i64 8, ptr %9) #5
  call void @llvm.lifetime.end.p0(i64 4, ptr %8) #5
  %43 = load i32, ptr %4, align 4
  ret i32 %43
}