; Function Attrs: mustprogress uwtable
define internal noundef i32 @_ZNK7rocksdb12_GLOBAL__N_123ComparatorWithU64TsImplINS0_29ReverseBytewiseComparatorImplEE7CompareERKNS_5SliceES6_(ptr noundef nonnull align 8 dereferenceable(96) %0, ptr noundef nonnull align 8 dereferenceable(16) %1, ptr noundef nonnull align 8 dereferenceable(16) %2) unnamed_addr #1 align 2 {
  %4 = alloca %"class.rocksdb::Slice", align 8
  %5 = alloca %"class.rocksdb::Slice", align 8
  %6 = load ptr, ptr %0, align 8, !tbaa !19
  %7 = getelementptr inbounds nuw i8, ptr %6, i64 232
  %8 = load ptr, ptr %7, align 8
  %9 = tail call noundef i32 %8(ptr noundef nonnull align 8 dereferenceable(48) %0, ptr noundef nonnull align 8 dereferenceable(16) %1, i1 noundef zeroext true, ptr noundef nonnull align 8 dereferenceable(16) %2, i1 noundef zeroext true)
  %.not = icmp eq i32 %9, 0
  br i1 %.not, label %10, label %31

10:                                               ; preds = %3
  %11 = getelementptr inbounds nuw i8, ptr %0, i64 40
  %12 = load i64, ptr %11, align 8, !tbaa !5
  call void @llvm.lifetime.start.p0(i64 16, ptr nonnull %4) #27
  %13 = load ptr, ptr %1, align 8, !tbaa !32
  %14 = getelementptr inbounds nuw i8, ptr %1, i64 8
  %15 = load i64, ptr %14, align 8, !tbaa !29
  %16 = getelementptr inbounds nuw i8, ptr %13, i64 %15
  %17 = sub i64 0, %12
  %18 = getelementptr inbounds i8, ptr %16, i64 %17
  store ptr %18, ptr %4, align 8
  %19 = getelementptr inbounds nuw i8, ptr %4, i64 8
  store i64 %12, ptr %19, align 8
  call void @llvm.lifetime.start.p0(i64 16, ptr nonnull %5) #27
  %20 = load ptr, ptr %2, align 8, !tbaa !32
  %21 = getelementptr inbounds nuw i8, ptr %2, i64 8
  %22 = load i64, ptr %21, align 8, !tbaa !29
  %23 = getelementptr inbounds nuw i8, ptr %20, i64 %22
  %24 = getelementptr inbounds i8, ptr %23, i64 %17
  store ptr %24, ptr %5, align 8
  %25 = getelementptr inbounds nuw i8, ptr %5, i64 8
  store i64 %12, ptr %25, align 8
  %26 = load ptr, ptr %0, align 8, !tbaa !19
  %27 = getelementptr inbounds nuw i8, ptr %26, i64 224
  %28 = load ptr, ptr %27, align 8
  %29 = call noundef i32 %28(ptr noundef nonnull align 8 dereferenceable(96) %0, ptr noundef nonnull align 8 dereferenceable(16) %4, ptr noundef nonnull align 8 dereferenceable(16) %5)
  %30 = sub nsw i32 0, %29
  call void @llvm.lifetime.end.p0(i64 16, ptr nonnull %5) #27
  call void @llvm.lifetime.end.p0(i64 16, ptr nonnull %4) #27
  br label %31

31:                                               ; preds = %3, %10
  %.0 = phi i32 [ %30, %10 ], [ %9, %3 ]
  ret i32 %.0
}